; ModuleID = 'source-C-CXX/11/1449.cpp'
source_filename = "source-C-CXX/11/1449.cpp"
target datalayout = "e-m:e-p270:32:32-p271:32:32-p272:64:64-i64:64-f80:128-n8:16:32:64-S128"
target triple = "x86_64-pc-linux-gnu"

%"class.std::ios_base::Init" = type { i8 }
%"class.std::basic_istream" = type { i32 (...)**, i64, %"class.std::basic_ios" }
%"class.std::basic_ios" = type { %"class.std::ios_base", %"class.std::basic_ostream"*, i8, i8, %"class.std::basic_streambuf"*, %"class.std::ctype"*, %"class.std::num_put"*, %"class.std::num_get"* }
%"class.std::ios_base" = type { i32 (...)**, i64, i64, i32, i32, i32, %"struct.std::ios_base::_Callback_list"*, %"struct.std::ios_base::_Words", [8 x %"struct.std::ios_base::_Words"], i32, %"struct.std::ios_base::_Words"*, %"class.std::locale" }
%"struct.std::ios_base::_Callback_list" = type { %"struct.std::ios_base::_Callback_list"*, void (i32, %"class.std::ios_base"*, i32)*, i32, i32 }
%"struct.std::ios_base::_Words" = type { i8*, i64 }
%"class.std::locale" = type { %"class.std::locale::_Impl"* }
%"class.std::locale::_Impl" = type { i32, %"class.std::locale::facet"**, i64, %"class.std::locale::facet"**, i8** }
%"class.std::locale::facet" = type <{ i32 (...)**, i32, [4 x i8] }>
%"class.std::basic_ostream" = type { i32 (...)**, %"class.std::basic_ios" }
%"class.std::basic_streambuf" = type { i32 (...)**, i8*, i8*, i8*, i8*, i8*, i8*, %"class.std::locale" }
%"class.std::ctype" = type <{ %"class.std::locale::facet.base", [4 x i8], %struct.__locale_struct*, i8, [7 x i8], i32*, i32*, i16*, i8, [256 x i8], [256 x i8], i8, [6 x i8] }>
%"class.std::locale::facet.base" = type <{ i32 (...)**, i32 }>
%struct.__locale_struct = type { [13 x %struct.__locale_data*], i16*, i32*, i32*, [13 x i8*] }
%struct.__locale_data = type opaque
%"class.std::num_put" = type { %"class.std::locale::facet.base", [4 x i8] }
%"class.std::num_get" = type { %"class.std::locale::facet.base", [4 x i8] }

@_ZStL8__ioinit = internal global %"class.std::ios_base::Init" zeroinitializer, align 1
@__dso_handle = external hidden global i8
@_ZSt3cin = external global %"class.std::basic_istream", align 8
@_ZSt4cout = external global %"class.std::basic_ostream", align 8
@llvm.global_ctors = appending global [1 x { i32, void ()*, i8* }] [{ i32, void ()*, i8* } { i32 65535, void ()* @_GLOBAL__sub_I_1449.cpp, i8* null }]

declare void @_ZNSt8ios_base4InitC1Ev(%"class.std::ios_base::Init"* nonnull align 1 dereferenceable(1)) unnamed_addr #0

; Function Attrs: nounwind
declare void @_ZNSt8ios_base4InitD1Ev(%"class.std::ios_base::Init"* nonnull align 1 dereferenceable(1)) unnamed_addr #1

; Function Attrs: nofree nounwind
declare i32 @__cxa_atexit(void (i8*)*, i8*, i8*) local_unnamed_addr #2

; Function Attrs: mustprogress norecurse sspstrong uwtable
define dso_local i32 @main() local_unnamed_addr #3 {
  %1 = alloca [101 x i32], align 16
  %2 = alloca i32, align 4
  %3 = bitcast [101 x i32]* %1 to i8*
  call void @llvm.lifetime.start.p0i8(i64 404, i8* nonnull %3) #8
  %4 = bitcast i32* %2 to i8*
  call void @llvm.lifetime.start.p0i8(i64 4, i8* nonnull %4) #8
  %5 = getelementptr inbounds [101 x i32], [101 x i32]* %1, i64 0, i64 0
  %6 = call nonnull align 8 dereferenceable(16) %"class.std::basic_istream"* @_ZNSirsERi(%"class.std::basic_istream"* nonnull align 8 dereferenceable(16) @_ZSt3cin, i32* nonnull align 4 dereferenceable(4) %2)
  %7 = load i32, i32* %2, align 4, !tbaa !5
  %8 = icmp eq i32 %7, -1
  br i1 %8, label %136, label %9

9:                                                ; preds = %0, %97
  %10 = phi i64 [ %98, %97 ], [ 0, %0 ]
  %11 = phi i32 [ %99, %97 ], [ %7, %0 ]
  %12 = phi i64 [ %100, %97 ], [ 1, %0 ]
  %13 = phi i32 [ %101, %97 ], [ 0, %0 ]
  %14 = add i64 %10, 1
  store i32 %11, i32* %5, align 16, !tbaa !5
  %15 = getelementptr inbounds [101 x i32], [101 x i32]* %1, i64 0, i64 %12
  %16 = call nonnull align 8 dereferenceable(16) %"class.std::basic_istream"* @_ZNSirsERi(%"class.std::basic_istream"* nonnull align 8 dereferenceable(16) @_ZSt3cin, i32* nonnull align 4 dereferenceable(4) %15)
  %17 = load i32, i32* %15, align 4, !tbaa !5
  %18 = shl nsw i32 %17, 1
  %19 = icmp ult i64 %14, 8
  br i1 %19, label %69, label %20

20:                                               ; preds = %9
  %21 = and i64 %14, -8
  %22 = insertelement <4 x i32> <i32 poison, i32 0, i32 0, i32 0>, i32 %13, i32 0
  %23 = insertelement <4 x i32> poison, i32 %17, i32 0
  %24 = shufflevector <4 x i32> %23, <4 x i32> poison, <4 x i32> zeroinitializer
  %25 = insertelement <4 x i32> poison, i32 %17, i32 0
  %26 = shufflevector <4 x i32> %25, <4 x i32> poison, <4 x i32> zeroinitializer
  %27 = insertelement <4 x i32> poison, i32 %18, i32 0
  %28 = shufflevector <4 x i32> %27, <4 x i32> poison, <4 x i32> zeroinitializer
  %29 = insertelement <4 x i32> poison, i32 %18, i32 0
  %30 = shufflevector <4 x i32> %29, <4 x i32> poison, <4 x i32> zeroinitializer
  br label %31

31:                                               ; preds = %31, %20
  %32 = phi i64 [ 0, %20 ], [ %63, %31 ]
  %33 = phi <4 x i32> [ %22, %20 ], [ %61, %31 ]
  %34 = phi <4 x i32> [ zeroinitializer, %20 ], [ %62, %31 ]
  %35 = getelementptr inbounds [101 x i32], [101 x i32]* %1, i64 0, i64 %32
  %36 = bitcast i32* %35 to <4 x i32>*
  %37 = load <4 x i32>, <4 x i32>* %36, align 16, !tbaa !5
  %38 = getelementptr inbounds i32, i32* %35, i64 4
  %39 = bitcast i32* %38 to <4 x i32>*
  %40 = load <4 x i32>, <4 x i32>* %39, align 16, !tbaa !5
  %41 = icmp sgt <4 x i32> %37, %24
  %42 = icmp sgt <4 x i32> %40, %26
  %43 = icmp eq <4 x i32> %37, %28
  %44 = icmp eq <4 x i32> %40, %30
  %45 = select <4 x i1> %41, <4 x i1> %43, <4 x i1> zeroinitializer
  %46 = select <4 x i1> %42, <4 x i1> %44, <4 x i1> zeroinitializer
  %47 = zext <4 x i1> %45 to <4 x i32>
  %48 = zext <4 x i1> %46 to <4 x i32>
  %49 = icmp sgt <4 x i32> %24, %37
  %50 = icmp sgt <4 x i32> %26, %40
  %51 = shl nsw <4 x i32> %37, <i32 1, i32 1, i32 1, i32 1>
  %52 = shl nsw <4 x i32> %40, <i32 1, i32 1, i32 1, i32 1>
  %53 = icmp eq <4 x i32> %24, %51
  %54 = icmp eq <4 x i32> %26, %52
  %55 = select <4 x i1> %49, <4 x i1> %53, <4 x i1> zeroinitializer
  %56 = select <4 x i1> %50, <4 x i1> %54, <4 x i1> zeroinitializer
  %57 = zext <4 x i1> %55 to <4 x i32>
  %58 = zext <4 x i1> %56 to <4 x i32>
  %59 = add <4 x i32> %33, %57
  %60 = add <4 x i32> %34, %58
  %61 = add <4 x i32> %59, %47
  %62 = add <4 x i32> %60, %48
  %63 = add nuw i64 %32, 8
  %64 = icmp eq i64 %63, %21
  br i1 %64, label %65, label %31, !llvm.loop !9

65:                                               ; preds = %31
  %66 = add <4 x i32> %62, %61
  %67 = call i32 @llvm.vector.reduce.add.v4i32(<4 x i32> %66)
  %68 = icmp eq i64 %14, %21
  br i1 %68, label %90, label %69

69:                                               ; preds = %9, %65
  %70 = phi i64 [ 0, %9 ], [ %21, %65 ]
  %71 = phi i32 [ %13, %9 ], [ %67, %65 ]
  br label %72

72:                                               ; preds = %69, %72
  %73 = phi i64 [ %88, %72 ], [ %70, %69 ]
  %74 = phi i32 [ %87, %72 ], [ %71, %69 ]
  %75 = getelementptr inbounds [101 x i32], [101 x i32]* %1, i64 0, i64 %73
  %76 = load i32, i32* %75, align 4, !tbaa !5
  %77 = icmp sgt i32 %76, %17
  %78 = icmp eq i32 %76, %18
  %79 = select i1 %77, i1 %78, i1 false
  %80 = zext i1 %79 to i32
  %81 = icmp sgt i32 %17, %76
  %82 = shl nsw i32 %76, 1
  %83 = icmp eq i32 %17, %82
  %84 = select i1 %81, i1 %83, i1 false
  %85 = zext i1 %84 to i32
  %86 = add i32 %74, %85
  %87 = add i32 %86, %80
  %88 = add nuw nsw i64 %73, 1
  %89 = icmp eq i64 %88, %12
  br i1 %89, label %90, label %72, !llvm.loop !12

90:                                               ; preds = %72, %65
  %91 = phi i32 [ %67, %65 ], [ %87, %72 ]
  %92 = icmp eq i32 %17, 0
  br i1 %92, label %102, label %93, !llvm.loop !14

93:                                               ; preds = %90
  %94 = add nuw i64 %12, 1
  %95 = load i32, i32* %2, align 4, !tbaa !5
  %96 = add i64 %10, 1
  br label %97

97:                                               ; preds = %93, %129
  %98 = phi i64 [ %96, %93 ], [ 0, %129 ]
  %99 = phi i32 [ %95, %93 ], [ %134, %129 ]
  %100 = phi i64 [ %94, %93 ], [ 1, %129 ]
  %101 = phi i32 [ %91, %93 ], [ 0, %129 ]
  br label %9, !llvm.loop !15

102:                                              ; preds = %90
  %103 = call nonnull align 8 dereferenceable(8) %"class.std::basic_ostream"* @_ZNSolsEi(%"class.std::basic_ostream"* nonnull align 8 dereferenceable(8) @_ZSt4cout, i32 %91)
  %104 = bitcast %"class.std::basic_ostream"* %103 to i8**
  %105 = load i8*, i8** %104, align 8, !tbaa !16
  %106 = getelementptr i8, i8* %105, i64 -24
  %107 = bitcast i8* %106 to i64*
  %108 = load i64, i64* %107, align 8
  %109 = bitcast %"class.std::basic_ostream"* %103 to i8*
  %110 = add nsw i64 %108, 240
  %111 = getelementptr inbounds i8, i8* %109, i64 %110
  %112 = bitcast i8* %111 to %"class.std::ctype"**
  %113 = load %"class.std::ctype"*, %"class.std::ctype"** %112, align 8, !tbaa !18
  %114 = icmp eq %"class.std::ctype"* %113, null
  br i1 %114, label %115, label %116

115:                                              ; preds = %102
  call void @_ZSt16__throw_bad_castv() #9
  unreachable

116:                                              ; preds = %102
  %117 = getelementptr inbounds %"class.std::ctype", %"class.std::ctype"* %113, i64 0, i32 8
  %118 = load i8, i8* %117, align 8, !tbaa !22
  %119 = icmp eq i8 %118, 0
  br i1 %119, label %123, label %120

120:                                              ; preds = %116
  %121 = getelementptr inbounds %"class.std::ctype", %"class.std::ctype"* %113, i64 0, i32 9, i64 10
  %122 = load i8, i8* %121, align 1, !tbaa !24
  br label %129

123:                                              ; preds = %116
  call void @_ZNKSt5ctypeIcE13_M_widen_initEv(%"class.std::ctype"* nonnull align 8 dereferenceable(570) %113)
  %124 = bitcast %"class.std::ctype"* %113 to i8 (%"class.std::ctype"*, i8)***
  %125 = load i8 (%"class.std::ctype"*, i8)**, i8 (%"class.std::ctype"*, i8)*** %124, align 8, !tbaa !16
  %126 = getelementptr inbounds i8 (%"class.std::ctype"*, i8)*, i8 (%"class.std::ctype"*, i8)** %125, i64 6
  %127 = load i8 (%"class.std::ctype"*, i8)*, i8 (%"class.std::ctype"*, i8)** %126, align 8
  %128 = call signext i8 %127(%"class.std::ctype"* nonnull align 8 dereferenceable(570) %113, i8 signext 10)
  br label %129

129:                                              ; preds = %120, %123
  %130 = phi i8 [ %122, %120 ], [ %128, %123 ]
  %131 = call nonnull align 8 dereferenceable(8) %"class.std::basic_ostream"* @_ZNSo3putEc(%"class.std::basic_ostream"* nonnull align 8 dereferenceable(8) %103, i8 signext %130)
  %132 = call nonnull align 8 dereferenceable(8) %"class.std::basic_ostream"* @_ZNSo5flushEv(%"class.std::basic_ostream"* nonnull align 8 dereferenceable(8) %131)
  %133 = call nonnull align 8 dereferenceable(16) %"class.std::basic_istream"* @_ZNSirsERi(%"class.std::basic_istream"* nonnull align 8 dereferenceable(16) @_ZSt3cin, i32* nonnull align 4 dereferenceable(4) %2)
  %134 = load i32, i32* %2, align 4, !tbaa !5
  %135 = icmp eq i32 %134, -1
  br i1 %135, label %136, label %97

136:                                              ; preds = %129, %0
  call void @llvm.lifetime.end.p0i8(i64 4, i8* nonnull %4) #8
  call void @llvm.lifetime.end.p0i8(i64 404, i8* nonnull %3) #8
  ret i32 0
}

; Function Attrs: argmemonly mustprogress nofree nosync nounwind willreturn
declare void @llvm.lifetime.start.p0i8(i64 immarg, i8* nocapture) #4

declare nonnull align 8 dereferenceable(16) %"class.std::basic_istream"* @_ZNSirsERi(%"class.std::basic_istream"* nonnull align 8 dereferenceable(16), i32* nonnull align 4 dereferenceable(4)) local_unnamed_addr #0

declare nonnull align 8 dereferenceable(8) %"class.std::basic_ostream"* @_ZNSolsEi(%"class.std::basic_ostream"* nonnull align 8 dereferenceable(8), i32) local_unnamed_addr #0

; Function Attrs: argmemonly mustprogress nofree nosync nounwind willreturn
declare void @llvm.lifetime.end.p0i8(i64 immarg, i8* nocapture) #4

declare nonnull align 8 dereferenceable(8) %"class.std::basic_ostream"* @_ZNSo3putEc(%"class.std::basic_ostream"* nonnull align 8 dereferenceable(8), i8 signext) local_unnamed_addr #0

declare nonnull align 8 dereferenceable(8) %"class.std::basic_ostream"* @_ZNSo5flushEv(%"class.std::basic_ostream"* nonnull align 8 dereferenceable(8)) local_unnamed_addr #0

; Function Attrs: noreturn
declare void @_ZSt16__throw_bad_castv() local_unnamed_addr #5

declare void @_ZNKSt5ctypeIcE13_M_widen_initEv(%"class.std::ctype"* nonnull align 8 dereferenceable(570)) local_unnamed_addr #0

; Function Attrs: sspstrong uwtable
define internal void @_GLOBAL__sub_I_1449.cpp() #6 section ".text.startup" {
  tail call void @_ZNSt8ios_base4InitC1Ev(%"class.std::ios_base::Init"* nonnull align 1 dereferenceable(1) @_ZStL8__ioinit)
  %1 = tail call i32 @__cxa_atexit(void (i8*)* bitcast (void (%"class.std::ios_base::Init"*)* @_ZNSt8ios_base4InitD1Ev to void (i8*)*), i8* getelementptr inbounds (%"class.std::ios_base::Init", %"class.std::ios_base::Init"* @_ZStL8__ioinit, i64 0, i32 0), i8* nonnull @__dso_handle) #8
  ret void
}

; Function Attrs: nofree nosync nounwind readnone willreturn
declare i32 @llvm.vector.reduce.add.v4i32(<4 x i32>) #7


!llvm.module.flags = !{!0, !1, !2, !3}
!llvm.ident = !{!4}

!0 = !{i32 1, !"wchar_size", i32 4}
!1 = !{i32 7, !"PIC Level", i32 2}
!2 = !{i32 7, !"PIE Level", i32 2}
!3 = !{i32 7, !"uwtable", i32 1}
!4 = !{!"clang version 13.0.0"}
!5 = !{!6, !6, i64 0}
!6 = !{!"int", !7, i64 0}
!7 = !{!"omnipotent char", !8, i64 0}
!8 = !{!"Simple C++ TBAA"}
!9 = distinct !{!9, !10, !11}
!10 = !{!"llvm.loop.mustprogress"}
!11 = !{!"llvm.loop.isvectorized", i32 1}
!12 = distinct !{!12, !10, !13, !11}
!13 = !{!"llvm.loop.unroll.runtime.disable"}
!14 = distinct !{!14, !10}
!15 = distinct !{!15, !10}
!16 = !{!17, !17, i64 0}
!17 = !{!"vtable pointer", !8, i64 0}
!18 = !{!19, !20, i64 240}
!19 = !{!"_ZTSSt9basic_iosIcSt11char_traitsIcEE", !20, i64 216, !7, i64 224, !21, i64 225, !20, i64 232, !20, i64 240, !20, i64 248, !20, i64 256}
!20 = !{!"any pointer", !7, i64 0}
!21 = !{!"bool", !7, i64 0}
!22 = !{!23, !7, i64 56}
!23 = !{!"_ZTSSt5ctypeIcE", !20, i64 16, !21, i64 24, !20, i64 32, !20, i64 40, !20, i64 48, !7, i64 56, !7, i64 57, !7, i64 313, !7, i64 569}
!24 = !{!7, !7, i64 0}
